target datalayout = "e-m:e-p270:32:32-p271:32:32-p272:64:64-i64:64-i128:128-f80:128-n8:16:32:64-S128"
target triple = "x86_64-pc-linux-gnu"

%struct.UList = type { ptr, ptr, ptr, i32 }
%struct.UListNode = type { ptr, ptr, ptr, i8 }

; Function Attrs: mustprogress uwtable
define void @ulist_deleteList_77(ptr noundef %0) #0 {
  %2 = alloca ptr, align 8
  %3 = alloca ptr, align 8
  %4 = alloca ptr, align 8
  store ptr %0, ptr %2, align 8, !tbaa !7
  call void @llvm.lifetime.start.p0(i64 8, ptr %3) #7
  store ptr null, ptr %3, align 8, !tbaa !19
  %5 = load ptr, ptr %2, align 8, !tbaa !7
  %6 = icmp ne ptr %5, null
  br i1 %6, label %7, label %31

7:                                                ; preds = %1
  %8 = load ptr, ptr %2, align 8, !tbaa !7
  %9 = getelementptr inbounds nuw %struct.UList, ptr %8, i32 0, i32 1
  %10 = load ptr, ptr %9, align 8, !tbaa !15
  store ptr %10, ptr %3, align 8, !tbaa !19
  br label %11

11:                                               ; preds = %26, %7
  %12 = load ptr, ptr %3, align 8, !tbaa !19
  %13 = icmp ne ptr %12, null
  br i1 %13, label %14, label %29

14:                                               ; preds = %11
  call void @llvm.lifetime.start.p0(i64 8, ptr %4) #7
  %15 = load ptr, ptr %3, align 8, !tbaa !19
  %16 = getelementptr inbounds nuw %struct.UListNode, ptr %15, i32 0, i32 1
  %17 = load ptr, ptr %16, align 8, !tbaa !23
  store ptr %17, ptr %4, align 8, !tbaa !19
  %18 = load ptr, ptr %3, align 8, !tbaa !19
  %19 = getelementptr inbounds nuw %struct.UListNode, ptr %18, i32 0, i32 3
  %20 = load i8, ptr %19, align 8, !tbaa !22
  %21 = icmp ne i8 %20, 0
  br i1 %21, label %22, label %26

22:                                               ; preds = %14
  %23 = load ptr, ptr %3, align 8, !tbaa !19
  %24 = getelementptr inbounds nuw %struct.UListNode, ptr %23, i32 0, i32 0
  %25 = load ptr, ptr %24, align 8, !tbaa !20
  call void @uprv_free_77(ptr noundef %25)
  br label %26

26:                                               ; preds = %22, %14
  %27 = load ptr, ptr %3, align 8, !tbaa !19
  call void @uprv_free_77(ptr noundef %27)
  %28 = load ptr, ptr %4, align 8, !tbaa !19
  store ptr %28, ptr %3, align 8, !tbaa !19
  call void @llvm.lifetime.end.p0(i64 8, ptr %4) #7
  br label %11, !llvm.loop !31

29:                                               ; preds = %11
  %30 = load ptr, ptr %2, align 8, !tbaa !7
  call void @uprv_free_77(ptr noundef %30)
  store ptr null, ptr %2, align 8, !tbaa !7
  br label %31

31:                                               ; preds = %29, %1
  call void @llvm.lifetime.end.p0(i64 8, ptr %3) #7
  ret void
}