; Function Attrs: mustprogress uwtable
define void @ulist_deleteList_77(ptr noundef %0) local_unnamed_addr #0 {
  %.not = icmp eq ptr %0, null
  br i1 %.not, label %12, label %2

2:                                                ; preds = %1
  %3 = getelementptr inbounds nuw i8, ptr %0, i64 8
  %4 = load ptr, ptr %3, align 8, !tbaa !15
  %.not1012 = icmp eq ptr %4, null
  br i1 %.not1012, label %._crit_edge, label %.lr.ph

.lr.ph:                                           ; preds = %2, %11
  %.013 = phi ptr [ %6, %11 ], [ %4, %2 ]
  %5 = getelementptr inbounds nuw i8, ptr %.013, i64 8
  %6 = load ptr, ptr %5, align 8, !tbaa !17
  %7 = getelementptr inbounds nuw i8, ptr %.013, i64 24
  %8 = load i8, ptr %7, align 8, !tbaa !11
  %.not11 = icmp eq i8 %8, 0
  br i1 %.not11, label %11, label %9

9:                                                ; preds = %.lr.ph
  %10 = load ptr, ptr %.013, align 8, !tbaa !7
  tail call void @uprv_free_77(ptr noundef %10)
  br label %11

11:                                               ; preds = %9, %.lr.ph
  tail call void @uprv_free_77(ptr noundef nonnull %.013)
  %.not10 = icmp eq ptr %6, null
  br i1 %.not10, label %._crit_edge, label %.lr.ph, !llvm.loop !24

._crit_edge:                                      ; preds = %11, %2
  tail call void @uprv_free_77(ptr noundef nonnull %0)
  br label %12

12:                                               ; preds = %._crit_edge, %1
  ret void
}